; Function Attrs: mustprogress uwtable
define internal noundef ptr @"_ZZN4pkpy12add_module_cEPNS_2VMEEN5$_1068__invokeES1_PNS_8PyObjectES4_"(ptr noundef %0, ptr nocapture noundef readonly %1, ptr noundef %2) #3 align 2 {
  %4 = getelementptr inbounds i8, ptr %1, i64 24
  %5 = tail call noundef i64 @_ZN4pkpy18_py_cast__internalIlLb1EEET_PNS_2VMEPNS_8PyObjectE(ptr noundef %0, ptr noundef %2)
  %6 = load ptr, ptr %4, align 8
  %7 = getelementptr inbounds i8, ptr %6, i64 %5
  %8 = load i8, ptr %7, align 1
  %9 = trunc i8 %8 to i1
  %.in.v.i.i = select i1 %9, i64 264528, i64 264536
  %.in.i.i = getelementptr inbounds i8, ptr %0, i64 %.in.v.i.i
  %10 = load ptr, ptr %.in.i.i, align 8
  ret ptr %10
}